target datalayout = "e-m:e-p270:32:32-p271:32:32-p272:64:64-i64:64-i128:128-f80:128-n8:16:32:64-S128"
target triple = "x86_64-pc-linux-gnu"

%"struct.lean::equiv_manager::node" = type { i32, i32 }
%"class.lean::equiv_manager" = type <{ %"class.std::vector", %"class.std::unordered_map", i8, [7 x i8] }>
%"class.std::vector" = type { %"struct.std::_Vector_base" }
%"struct.std::_Vector_base" = type { %"struct.std::_Vector_base<lean::equiv_manager::node, std::allocator<lean::equiv_manager::node>>::_Vector_impl" }
%"struct.std::_Vector_base<lean::equiv_manager::node, std::allocator<lean::equiv_manager::node>>::_Vector_impl" = type { %"struct.std::_Vector_base<lean::equiv_manager::node, std::allocator<lean::equiv_manager::node>>::_Vector_impl_data" }
%"struct.std::_Vector_base<lean::equiv_manager::node, std::allocator<lean::equiv_manager::node>>::_Vector_impl_data" = type { ptr, ptr, ptr }
%"class.std::unordered_map" = type { %"class.std::_Hashtable" }
%"class.std::_Hashtable" = type { ptr, i64, %"struct.std::__detail::_Hash_node_base", i64, %"struct.std::__detail::_Prime_rehash_policy", ptr }
%"struct.std::__detail::_Hash_node_base" = type { ptr }
%"struct.std::__detail::_Prime_rehash_policy" = type { float, i64 }

; Function Attrs: mustprogress nounwind uwtable
define linkonce_odr hidden noundef nonnull align 4 dereferenceable(8) ptr @_ZNSt6vectorIN4lean13equiv_manager4nodeESaIS2_EEixEm(ptr noundef nonnull align 8 dereferenceable(24) %0, i64 noundef %1) #2 comdat align 2 {
  %3 = alloca ptr, align 8
  %4 = alloca i64, align 8
  store ptr %0, ptr %3, align 8, !tbaa !13
  store i64 %1, ptr %4, align 8, !tbaa !23
  %5 = load ptr, ptr %3, align 8
  %6 = getelementptr inbounds nuw %"struct.std::_Vector_base", ptr %5, i32 0, i32 0
  %7 = getelementptr inbounds nuw %"struct.std::_Vector_base<lean::equiv_manager::node, std::allocator<lean::equiv_manager::node>>::_Vector_impl_data", ptr %6, i32 0, i32 0
  %8 = load ptr, ptr %7, align 8, !tbaa !18
  %9 = load i64, ptr %4, align 8, !tbaa !23
  %10 = getelementptr inbounds nuw %"struct.lean::equiv_manager::node", ptr %8, i64 %9
  ret ptr %10
}

; Function Attrs: mustprogress nounwind uwtable
define hidden noundef i32 @_ZN4lean13equiv_manager4findEj(ptr noundef nonnull align 8 dereferenceable(81) %0, i32 noundef %1) #2 align 2 {
  %3 = alloca i32, align 4
  %4 = alloca ptr, align 8
  %5 = alloca i32, align 4
  %6 = alloca i32, align 4
  %7 = alloca i32, align 4
  store ptr %0, ptr %4, align 8, !tbaa !3
  store i32 %1, ptr %5, align 4, !tbaa !8
  %8 = load ptr, ptr %4, align 8
  br label %9

9:                                                ; preds = %2, %25
  call void @llvm.lifetime.start.p0(i64 4, ptr %6) #16
  %10 = getelementptr inbounds nuw %"class.lean::equiv_manager", ptr %8, i32 0, i32 0
  %11 = load i32, ptr %5, align 4, !tbaa !8
  %12 = zext i32 %11 to i64
  %13 = call noundef nonnull align 4 dereferenceable(8) ptr @_ZNSt6vectorIN4lean13equiv_manager4nodeESaIS2_EEixEm(ptr noundef nonnull align 8 dereferenceable(24) %10, i64 noundef %12) #16
  %14 = getelementptr inbounds nuw %"struct.lean::equiv_manager::node", ptr %13, i32 0, i32 0
  %15 = load i32, ptr %14, align 4, !tbaa !10
  store i32 %15, ptr %6, align 4, !tbaa !8
  %16 = load i32, ptr %6, align 4, !tbaa !8
  %17 = load i32, ptr %5, align 4, !tbaa !8
  %18 = icmp eq i32 %16, %17
  br i1 %18, label %19, label %21

19:                                               ; preds = %9
  %20 = load i32, ptr %6, align 4, !tbaa !8
  store i32 %20, ptr %3, align 4
  store i32 1, ptr %7, align 4
  br label %23

21:                                               ; preds = %9
  %22 = load i32, ptr %6, align 4, !tbaa !8
  store i32 %22, ptr %5, align 4, !tbaa !8
  store i32 0, ptr %7, align 4
  br label %23

23:                                               ; preds = %21, %19
  call void @llvm.lifetime.end.p0(i64 4, ptr %6) #16
  %24 = load i32, ptr %7, align 4
  switch i32 %24, label %28 [
    i32 0, label %25
    i32 1, label %26
  ]

25:                                               ; preds = %23
  br label %9, !llvm.loop !21

26:                                               ; preds = %23
  %27 = load i32, ptr %3, align 4
  ret i32 %27

28:                                               ; preds = %23
  unreachable
}

; Function Attrs: mustprogress nounwind uwtable
define hidden void @_ZN4lean13equiv_manager5mergeEjj(ptr noundef nonnull align 8 dereferenceable(81) %0, i32 noundef %1, i32 noundef %2) #2 align 2 {
  %4 = alloca ptr, align 8
  %5 = alloca i32, align 4
  %6 = alloca i32, align 4
  %7 = alloca i32, align 4
  %8 = alloca i32, align 4
  %9 = alloca ptr, align 8
  %10 = alloca ptr, align 8
  store ptr %0, ptr %4, align 8, !tbaa !3
  store i32 %1, ptr %5, align 4, !tbaa !8
  store i32 %2, ptr %6, align 4, !tbaa !8
  %11 = load ptr, ptr %4, align 8
  call void @llvm.lifetime.start.p0(i64 4, ptr %7) #16
  %12 = load i32, ptr %5, align 4, !tbaa !8
  %13 = call noundef i32 @_ZN4lean13equiv_manager4findEj(ptr noundef nonnull align 8 dereferenceable(81) %11, i32 noundef %12)
  store i32 %13, ptr %7, align 4, !tbaa !8
  call void @llvm.lifetime.start.p0(i64 4, ptr %8) #16
  %14 = load i32, ptr %6, align 4, !tbaa !8
  %15 = call noundef i32 @_ZN4lean13equiv_manager4findEj(ptr noundef nonnull align 8 dereferenceable(81) %11, i32 noundef %14)
  store i32 %15, ptr %8, align 4, !tbaa !8
  %16 = load i32, ptr %7, align 4, !tbaa !8
  %17 = load i32, ptr %8, align 4, !tbaa !8
  %18 = icmp ne i32 %16, %17
  br i1 %18, label %19, label %61

19:                                               ; preds = %3
  call void @llvm.lifetime.start.p0(i64 8, ptr %9) #16
  %20 = getelementptr inbounds nuw %"class.lean::equiv_manager", ptr %11, i32 0, i32 0
  %21 = load i32, ptr %7, align 4, !tbaa !8
  %22 = zext i32 %21 to i64
  %23 = call noundef nonnull align 4 dereferenceable(8) ptr @_ZNSt6vectorIN4lean13equiv_manager4nodeESaIS2_EEixEm(ptr noundef nonnull align 8 dereferenceable(24) %20, i64 noundef %22) #16
  store ptr %23, ptr %9, align 8, !tbaa !19
  call void @llvm.lifetime.start.p0(i64 8, ptr %10) #16
  %24 = getelementptr inbounds nuw %"class.lean::equiv_manager", ptr %11, i32 0, i32 0
  %25 = load i32, ptr %8, align 4, !tbaa !8
  %26 = zext i32 %25 to i64
  %27 = call noundef nonnull align 4 dereferenceable(8) ptr @_ZNSt6vectorIN4lean13equiv_manager4nodeESaIS2_EEixEm(ptr noundef nonnull align 8 dereferenceable(24) %24, i64 noundef %26) #16
  store ptr %27, ptr %10, align 8, !tbaa !19
  %28 = load ptr, ptr %9, align 8, !tbaa !19
  %29 = getelementptr inbounds nuw %"struct.lean::equiv_manager::node", ptr %28, i32 0, i32 1
  %30 = load i32, ptr %29, align 4, !tbaa !12
  %31 = load ptr, ptr %10, align 8, !tbaa !19
  %32 = getelementptr inbounds nuw %"struct.lean::equiv_manager::node", ptr %31, i32 0, i32 1
  %33 = load i32, ptr %32, align 4, !tbaa !12
  %34 = icmp ult i32 %30, %33
  br i1 %34, label %35, label %39

35:                                               ; preds = %19
  %36 = load i32, ptr %8, align 4, !tbaa !8
  %37 = load ptr, ptr %9, align 8, !tbaa !19
  %38 = getelementptr inbounds nuw %"struct.lean::equiv_manager::node", ptr %37, i32 0, i32 0
  store i32 %36, ptr %38, align 4, !tbaa !10
  br label %60

39:                                               ; preds = %19
  %40 = load ptr, ptr %9, align 8, !tbaa !19
  %41 = getelementptr inbounds nuw %"struct.lean::equiv_manager::node", ptr %40, i32 0, i32 1
  %42 = load i32, ptr %41, align 4, !tbaa !12
  %43 = load ptr, ptr %10, align 8, !tbaa !19
  %44 = getelementptr inbounds nuw %"struct.lean::equiv_manager::node", ptr %43, i32 0, i32 1
  %45 = load i32, ptr %44, align 4, !tbaa !12
  %46 = icmp ugt i32 %42, %45
  br i1 %46, label %47, label %51

47:                                               ; preds = %39
  %48 = load i32, ptr %7, align 4, !tbaa !8
  %49 = load ptr, ptr %10, align 8, !tbaa !19
  %50 = getelementptr inbounds nuw %"struct.lean::equiv_manager::node", ptr %49, i32 0, i32 0
  store i32 %48, ptr %50, align 4, !tbaa !10
  br label %59

51:                                               ; preds = %39
  %52 = load i32, ptr %7, align 4, !tbaa !8
  %53 = load ptr, ptr %10, align 8, !tbaa !19
  %54 = getelementptr inbounds nuw %"struct.lean::equiv_manager::node", ptr %53, i32 0, i32 0
  store i32 %52, ptr %54, align 4, !tbaa !10
  %55 = load ptr, ptr %9, align 8, !tbaa !19
  %56 = getelementptr inbounds nuw %"struct.lean::equiv_manager::node", ptr %55, i32 0, i32 1
  %57 = load i32, ptr %56, align 4, !tbaa !12
  %58 = add i32 %57, 1
  store i32 %58, ptr %56, align 4, !tbaa !12
  br label %59

59:                                               ; preds = %51, %47
  br label %60

60:                                               ; preds = %59, %35
  call void @llvm.lifetime.end.p0(i64 8, ptr %10) #16
  call void @llvm.lifetime.end.p0(i64 8, ptr %9) #16
  br label %61

61:                                               ; preds = %60, %3
  call void @llvm.lifetime.end.p0(i64 4, ptr %8) #16
  call void @llvm.lifetime.end.p0(i64 4, ptr %7) #16
  ret void
}

; Function Attrs: mustprogress uwtable
define hidden void @_ZN4lean13equiv_manager9add_equivERKNS_4exprES3_(ptr noundef nonnull align 8 dereferenceable(81) %0, ptr noundef nonnull align 8 dereferenceable(8) %1, ptr noundef nonnull align 8 dereferenceable(8) %2) #0 align 2 {
  %4 = alloca ptr, align 8
  %5 = alloca ptr, align 8
  %6 = alloca ptr, align 8
  %7 = alloca i32, align 4
  %8 = alloca i32, align 4
  store ptr %0, ptr %4, align 8, !tbaa !3
  store ptr %1, ptr %5, align 8, !tbaa !25
  store ptr %2, ptr %6, align 8, !tbaa !25
  %9 = load ptr, ptr %4, align 8
  call void @llvm.lifetime.start.p0(i64 4, ptr %7) #16
  %10 = load ptr, ptr %5, align 8, !tbaa !25
  %11 = call noundef i32 @_ZN4lean13equiv_manager7to_nodeERKNS_4exprE(ptr noundef nonnull align 8 dereferenceable(81) %9, ptr noundef nonnull align 8 dereferenceable(8) %10)
  store i32 %11, ptr %7, align 4, !tbaa !8
  call void @llvm.lifetime.start.p0(i64 4, ptr %8) #16
  %12 = load ptr, ptr %6, align 8, !tbaa !25
  %13 = call noundef i32 @_ZN4lean13equiv_manager7to_nodeERKNS_4exprE(ptr noundef nonnull align 8 dereferenceable(81) %9, ptr noundef nonnull align 8 dereferenceable(8) %12)
  store i32 %13, ptr %8, align 4, !tbaa !8
  %14 = load i32, ptr %7, align 4, !tbaa !8
  %15 = load i32, ptr %8, align 4, !tbaa !8
  call void @_ZN4lean13equiv_manager5mergeEjj(ptr noundef nonnull align 8 dereferenceable(81) %9, i32 noundef %14, i32 noundef %15)
  call void @llvm.lifetime.end.p0(i64 4, ptr %8) #16
  call void @llvm.lifetime.end.p0(i64 4, ptr %7) #16
  ret void
}