; Function Attrs: mustprogress uwtable
define hidden void @_ZN4lean13equiv_manager9add_equivERKNS_4exprES3_(ptr noundef nonnull align 8 dereferenceable(81) %0, ptr noundef nonnull align 8 dereferenceable(8) %1, ptr noundef nonnull align 8 dereferenceable(8) %2) local_unnamed_addr #0 align 2 {
  %4 = tail call noundef i32 @_ZN4lean13equiv_manager7to_nodeERKNS_4exprE(ptr noundef nonnull align 8 dereferenceable(81) %0, ptr noundef nonnull align 8 dereferenceable(8) %1)
  %5 = tail call noundef i32 @_ZN4lean13equiv_manager7to_nodeERKNS_4exprE(ptr noundef nonnull align 8 dereferenceable(81) %0, ptr noundef nonnull align 8 dereferenceable(8) %2)
  %6 = load ptr, ptr %0, align 8, !tbaa !9
  br label %7

7:                                                ; preds = %7, %3
  %.08.i.i = phi i32 [ %4, %3 ], [ %10, %7 ]
  %8 = zext i32 %.08.i.i to i64
  %9 = getelementptr inbounds nuw %"struct.lean::equiv_manager::node", ptr %6, i64 %8
  %10 = load i32, ptr %9, align 4, !tbaa !11
  %.not.i.i = icmp eq i32 %10, %.08.i.i
  br i1 %.not.i.i, label %_ZN4lean13equiv_manager4findEj.exit.i.preheader, label %7

_ZN4lean13equiv_manager4findEj.exit.i.preheader:  ; preds = %7
  %11 = getelementptr inbounds nuw %"struct.lean::equiv_manager::node", ptr %6, i64 %8
  br label %_ZN4lean13equiv_manager4findEj.exit.i

_ZN4lean13equiv_manager4findEj.exit.i:            ; preds = %_ZN4lean13equiv_manager4findEj.exit.i.preheader, %_ZN4lean13equiv_manager4findEj.exit.i
  %.08.i20.i = phi i32 [ %14, %_ZN4lean13equiv_manager4findEj.exit.i ], [ %5, %_ZN4lean13equiv_manager4findEj.exit.i.preheader ]
  %12 = zext i32 %.08.i20.i to i64
  %13 = getelementptr inbounds nuw %"struct.lean::equiv_manager::node", ptr %6, i64 %12
  %14 = load i32, ptr %13, align 4, !tbaa !11
  %.not.i21.i = icmp eq i32 %14, %.08.i20.i
  br i1 %.not.i21.i, label %_ZN4lean13equiv_manager4findEj.exit22.i, label %_ZN4lean13equiv_manager4findEj.exit.i

_ZN4lean13equiv_manager4findEj.exit22.i:          ; preds = %_ZN4lean13equiv_manager4findEj.exit.i
  %15 = getelementptr inbounds nuw %"struct.lean::equiv_manager::node", ptr %6, i64 %12
  %.not.i = icmp eq i32 %.08.i.i, %.08.i20.i
  br i1 %.not.i, label %_ZN4lean13equiv_manager5mergeEjj.exit, label %16

16:                                               ; preds = %_ZN4lean13equiv_manager4findEj.exit22.i
  %17 = getelementptr inbounds nuw i8, ptr %11, i64 4
  %18 = load i32, ptr %17, align 4, !tbaa !14
  %19 = getelementptr inbounds nuw i8, ptr %15, i64 4
  %20 = load i32, ptr %19, align 4, !tbaa !14
  %21 = icmp ult i32 %18, %20
  br i1 %21, label %22, label %23

22:                                               ; preds = %16
  store i32 %.08.i20.i, ptr %11, align 4, !tbaa !11
  br label %_ZN4lean13equiv_manager5mergeEjj.exit

23:                                               ; preds = %16
  %24 = icmp ugt i32 %18, %20
  store i32 %.08.i.i, ptr %15, align 4, !tbaa !11
  br i1 %24, label %_ZN4lean13equiv_manager5mergeEjj.exit, label %25

25:                                               ; preds = %23
  %26 = add i32 %18, 1
  store i32 %26, ptr %17, align 4, !tbaa !14
  br label %_ZN4lean13equiv_manager5mergeEjj.exit

_ZN4lean13equiv_manager5mergeEjj.exit:            ; preds = %_ZN4lean13equiv_manager4findEj.exit22.i, %22, %23, %25
  ret void
}